target datalayout = "e-m:e-p270:32:32-p271:32:32-p272:64:64-i64:64-i128:128-f80:128-n8:16:32:64-S128"
target triple = "x86_64-pc-linux-gnu"

@.str.17 = private unnamed_addr constant [6 x i8] c"Flags\00", align 1
@hf_eigrp_legacy_metric_delay = internal global i32 0, align 4
@hf_eigrp_legacy_metric_bw = internal global i32 0, align 4
@hf_eigrp_legacy_metric_mtu = internal global i32 0, align 4
@hf_eigrp_legacy_metric_hopcount = internal global i32 0, align 4
@hf_eigrp_legacy_metric_rel = internal global i32 0, align 4
@hf_eigrp_legacy_metric_load = internal global i32 0, align 4
@hf_eigrp_legacy_metric_intag = internal global i32 0, align 4
@hf_eigrp_metric_flags_srcwd = internal global i32 0, align 4
@hf_eigrp_metric_flags_cd = internal global i32 0, align 4
@hf_eigrp_metric_flags_active = internal global i32 0, align 4
@hf_eigrp_metric_flags_repl = internal global i32 0, align 4
@.str.187 = private unnamed_addr constant [14 x i8] c"Legacy Metric\00", align 1
@ett_eigrp_tlv_metric = internal global i32 0, align 4
@ett_eigrp_metric_flags = internal global i32 0, align 4

; Function Attrs: null_pointer_is_valid sspstrong uwtable
define internal i32 @dissect_eigrp_metric_flags(ptr noundef %0, ptr noundef %1, i32 noundef %2, i32 noundef %3) #0 {
  %5 = alloca ptr, align 8
  %6 = alloca ptr, align 8
  %7 = alloca i32, align 4
  %8 = alloca i32, align 4
  %9 = alloca ptr, align 8
  %10 = alloca ptr, align 8
  store ptr %0, ptr %5, align 8
  store ptr %1, ptr %6, align 8
  store i32 %2, ptr %7, align 4
  store i32 %3, ptr %8, align 4
  call void @llvm.lifetime.start.p0(i64 8, ptr %9) #6
  call void @llvm.lifetime.start.p0(i64 8, ptr %10) #6
  %11 = load ptr, ptr %5, align 8
  %12 = load ptr, ptr %6, align 8
  %13 = load i32, ptr %7, align 4
  %14 = load i32, ptr %8, align 4
  %15 = load i32, ptr @ett_eigrp_metric_flags, align 4
  %16 = call ptr @proto_tree_add_subtree(ptr noundef %11, ptr noundef %12, i32 noundef %13, i32 noundef %14, i32 noundef %15, ptr noundef null, ptr noundef @.str.17)
  store ptr %16, ptr %9, align 8
  %17 = load ptr, ptr %6, align 8
  %18 = load i32, ptr %7, align 4
  %19 = load i32, ptr %8, align 4
  %20 = call ptr @tvb_new_subset_length_caplen(ptr noundef %17, i32 noundef %18, i32 noundef %19, i32 noundef -1)
  store ptr %20, ptr %10, align 8
  %21 = load ptr, ptr %9, align 8
  %22 = load i32, ptr @hf_eigrp_metric_flags_srcwd, align 4
  %23 = load ptr, ptr %10, align 8
  %24 = call ptr @proto_tree_add_item(ptr noundef %21, i32 noundef %22, ptr noundef %23, i32 noundef 0, i32 noundef 1, i32 noundef 0)
  %25 = load ptr, ptr %9, align 8
  %26 = load i32, ptr @hf_eigrp_metric_flags_cd, align 4
  %27 = load ptr, ptr %10, align 8
  %28 = call ptr @proto_tree_add_item(ptr noundef %25, i32 noundef %26, ptr noundef %27, i32 noundef 0, i32 noundef 1, i32 noundef 0)
  %29 = load ptr, ptr %9, align 8
  %30 = load i32, ptr @hf_eigrp_metric_flags_active, align 4
  %31 = load ptr, ptr %10, align 8
  %32 = call ptr @proto_tree_add_item(ptr noundef %29, i32 noundef %30, ptr noundef %31, i32 noundef 0, i32 noundef 1, i32 noundef 0)
  %33 = load ptr, ptr %9, align 8
  %34 = load i32, ptr @hf_eigrp_metric_flags_repl, align 4
  %35 = load ptr, ptr %10, align 8
  %36 = call ptr @proto_tree_add_item(ptr noundef %33, i32 noundef %34, ptr noundef %35, i32 noundef 0, i32 noundef 1, i32 noundef 0)
  %37 = load i32, ptr %8, align 4
  %38 = load i32, ptr %7, align 4
  %39 = add i32 %38, %37
  store i32 %39, ptr %7, align 4
  %40 = load i32, ptr %7, align 4
  call void @llvm.lifetime.end.p0(i64 8, ptr %10) #6
  call void @llvm.lifetime.end.p0(i64 8, ptr %9) #6
  ret i32 %40
}

; Function Attrs: null_pointer_is_valid sspstrong uwtable
define internal i32 @dissect_eigrp_legacy_metric(ptr noundef %0, ptr noundef %1, i32 noundef %2) #0 {
  %4 = alloca ptr, align 8
  %5 = alloca ptr, align 8
  %6 = alloca i32, align 4
  %7 = alloca ptr, align 8
  %8 = alloca ptr, align 8
  store ptr %0, ptr %4, align 8
  store ptr %1, ptr %5, align 8
  store i32 %2, ptr %6, align 4
  call void @llvm.lifetime.start.p0(i64 8, ptr %7) #6
  call void @llvm.lifetime.start.p0(i64 8, ptr %8) #6
  %9 = load ptr, ptr %4, align 8
  %10 = load ptr, ptr %5, align 8
  %11 = load i32, ptr %6, align 4
  %12 = load i32, ptr @ett_eigrp_tlv_metric, align 4
  %13 = call ptr @proto_tree_add_subtree(ptr noundef %9, ptr noundef %10, i32 noundef %11, i32 noundef 16, i32 noundef %12, ptr noundef null, ptr noundef @.str.187)
  store ptr %13, ptr %7, align 8
  %14 = load ptr, ptr %5, align 8
  %15 = load i32, ptr %6, align 4
  %16 = call ptr @tvb_new_subset_length_caplen(ptr noundef %14, i32 noundef %15, i32 noundef 16, i32 noundef -1)
  store ptr %16, ptr %8, align 8
  %17 = load ptr, ptr %7, align 8
  %18 = load i32, ptr @hf_eigrp_legacy_metric_delay, align 4
  %19 = load ptr, ptr %8, align 8
  %20 = call ptr @proto_tree_add_item(ptr noundef %17, i32 noundef %18, ptr noundef %19, i32 noundef 0, i32 noundef 4, i32 noundef 0)
  %21 = load ptr, ptr %7, align 8
  %22 = load i32, ptr @hf_eigrp_legacy_metric_bw, align 4
  %23 = load ptr, ptr %8, align 8
  %24 = call ptr @proto_tree_add_item(ptr noundef %21, i32 noundef %22, ptr noundef %23, i32 noundef 4, i32 noundef 4, i32 noundef 0)
  %25 = load ptr, ptr %7, align 8
  %26 = load i32, ptr @hf_eigrp_legacy_metric_mtu, align 4
  %27 = load ptr, ptr %8, align 8
  %28 = call ptr @proto_tree_add_item(ptr noundef %25, i32 noundef %26, ptr noundef %27, i32 noundef 8, i32 noundef 3, i32 noundef 0)
  %29 = load ptr, ptr %7, align 8
  %30 = load i32, ptr @hf_eigrp_legacy_metric_hopcount, align 4
  %31 = load ptr, ptr %8, align 8
  %32 = call ptr @proto_tree_add_item(ptr noundef %29, i32 noundef %30, ptr noundef %31, i32 noundef 11, i32 noundef 1, i32 noundef 0)
  %33 = load ptr, ptr %7, align 8
  %34 = load i32, ptr @hf_eigrp_legacy_metric_rel, align 4
  %35 = load ptr, ptr %8, align 8
  %36 = call ptr @proto_tree_add_item(ptr noundef %33, i32 noundef %34, ptr noundef %35, i32 noundef 12, i32 noundef 1, i32 noundef 0)
  %37 = load ptr, ptr %7, align 8
  %38 = load i32, ptr @hf_eigrp_legacy_metric_load, align 4
  %39 = load ptr, ptr %8, align 8
  %40 = call ptr @proto_tree_add_item(ptr noundef %37, i32 noundef %38, ptr noundef %39, i32 noundef 13, i32 noundef 1, i32 noundef 0)
  %41 = load ptr, ptr %7, align 8
  %42 = load i32, ptr @hf_eigrp_legacy_metric_intag, align 4
  %43 = load ptr, ptr %8, align 8
  %44 = call ptr @proto_tree_add_item(ptr noundef %41, i32 noundef %42, ptr noundef %43, i32 noundef 14, i32 noundef 1, i32 noundef 0)
  %45 = load ptr, ptr %7, align 8
  %46 = load ptr, ptr %8, align 8
  %47 = call i32 @dissect_eigrp_metric_flags(ptr noundef %45, ptr noundef %46, i32 noundef 15, i32 noundef 1)
  %48 = load i32, ptr %6, align 4
  %49 = add i32 %48, 16
  store i32 %49, ptr %6, align 4
  %50 = load i32, ptr %6, align 4
  call void @llvm.lifetime.end.p0(i64 8, ptr %8) #6
  call void @llvm.lifetime.end.p0(i64 8, ptr %7) #6
  ret i32 %50
}