; Function Attrs: null_pointer_is_valid sspstrong uwtable
define internal fastcc noundef i32 @dissect_eigrp_legacy_metric(ptr noundef %0, ptr noundef %1, i32 noundef %2) unnamed_addr #0 {
  %4 = load i32, ptr @ett_eigrp_tlv_metric, align 4
  %5 = tail call ptr @proto_tree_add_subtree(ptr noundef %0, ptr noundef %1, i32 noundef %2, i32 noundef 16, i32 noundef %4, ptr noundef null, ptr noundef nonnull @.str.187)
  %6 = tail call ptr @tvb_new_subset_length_caplen(ptr noundef %1, i32 noundef %2, i32 noundef 16, i32 noundef -1)
  %7 = load i32, ptr @hf_eigrp_legacy_metric_delay, align 4
  %8 = tail call ptr @proto_tree_add_item(ptr noundef %5, i32 noundef %7, ptr noundef %6, i32 noundef 0, i32 noundef 4, i32 noundef 0)
  %9 = load i32, ptr @hf_eigrp_legacy_metric_bw, align 4
  %10 = tail call ptr @proto_tree_add_item(ptr noundef %5, i32 noundef %9, ptr noundef %6, i32 noundef 4, i32 noundef 4, i32 noundef 0)
  %11 = load i32, ptr @hf_eigrp_legacy_metric_mtu, align 4
  %12 = tail call ptr @proto_tree_add_item(ptr noundef %5, i32 noundef %11, ptr noundef %6, i32 noundef 8, i32 noundef 3, i32 noundef 0)
  %13 = load i32, ptr @hf_eigrp_legacy_metric_hopcount, align 4
  %14 = tail call ptr @proto_tree_add_item(ptr noundef %5, i32 noundef %13, ptr noundef %6, i32 noundef 11, i32 noundef 1, i32 noundef 0)
  %15 = load i32, ptr @hf_eigrp_legacy_metric_rel, align 4
  %16 = tail call ptr @proto_tree_add_item(ptr noundef %5, i32 noundef %15, ptr noundef %6, i32 noundef 12, i32 noundef 1, i32 noundef 0)
  %17 = load i32, ptr @hf_eigrp_legacy_metric_load, align 4
  %18 = tail call ptr @proto_tree_add_item(ptr noundef %5, i32 noundef %17, ptr noundef %6, i32 noundef 13, i32 noundef 1, i32 noundef 0)
  %19 = load i32, ptr @hf_eigrp_legacy_metric_intag, align 4
  %20 = tail call ptr @proto_tree_add_item(ptr noundef %5, i32 noundef %19, ptr noundef %6, i32 noundef 14, i32 noundef 1, i32 noundef 0)
  %21 = load i32, ptr @ett_eigrp_metric_flags, align 4
  %22 = tail call ptr @proto_tree_add_subtree(ptr noundef %5, ptr noundef %6, i32 noundef 15, i32 noundef 1, i32 noundef %21, ptr noundef null, ptr noundef nonnull @.str.17)
  %23 = tail call ptr @tvb_new_subset_length_caplen(ptr noundef %6, i32 noundef 15, i32 noundef 1, i32 noundef -1)
  %24 = load i32, ptr @hf_eigrp_metric_flags_srcwd, align 4
  %25 = tail call ptr @proto_tree_add_item(ptr noundef %22, i32 noundef %24, ptr noundef %23, i32 noundef 0, i32 noundef 1, i32 noundef 0)
  %26 = load i32, ptr @hf_eigrp_metric_flags_cd, align 4
  %27 = tail call ptr @proto_tree_add_item(ptr noundef %22, i32 noundef %26, ptr noundef %23, i32 noundef 0, i32 noundef 1, i32 noundef 0)
  %28 = load i32, ptr @hf_eigrp_metric_flags_active, align 4
  %29 = tail call ptr @proto_tree_add_item(ptr noundef %22, i32 noundef %28, ptr noundef %23, i32 noundef 0, i32 noundef 1, i32 noundef 0)
  %30 = load i32, ptr @hf_eigrp_metric_flags_repl, align 4
  %31 = tail call ptr @proto_tree_add_item(ptr noundef %22, i32 noundef %30, ptr noundef %23, i32 noundef 0, i32 noundef 1, i32 noundef 0)
  %32 = add i32 %2, 16
  ret i32 %32
}